target datalayout = "e-m:e-p270:32:32-p271:32:32-p272:64:64-i64:64-i128:128-f80:128-n8:16:32:64-S128"
target triple = "x86_64-pc-linux-gnu"

%struct.SDL_WaylandSeat = type { ptr, ptr, ptr, ptr, ptr, %struct.wl_list, i32, i32, %struct.anon, %struct.anon.1, %struct.anon.4, %struct.anon.5, %struct.anon.6 }
%struct.wl_list = type { ptr, ptr }
%struct.anon = type { ptr, ptr, ptr, ptr, ptr, %struct.SDL_WaylandKeyboardRepeat, i64, i16, i16, i32, i8, %struct.anon.0 }
%struct.SDL_WaylandKeyboardRepeat = type { i32, i32, i32, i8, i8, i32, i64, i64, i64, i32, [8 x i8] }
%struct.anon.0 = type { ptr, ptr, ptr, ptr, i32, i32, i32, i32, i32, i32, i32, i32, i32, i32, i32 }
%struct.anon.1 = type { ptr, ptr, ptr, ptr, ptr, ptr, ptr, ptr, i64, i32, i32, %struct.SDL_Point, i32, %struct.anon.2, %struct.anon.3 }
%struct.SDL_Point = type { i32, i32 }
%struct.anon.2 = type { i32, float, i32, float, i64, i32 }
%struct.anon.3 = type { ptr, ptr, ptr, i64, i64, i32 }
%struct.anon.4 = type { ptr, ptr, i64, %struct.wl_list }
%struct.anon.5 = type { ptr, %struct.SDL_Rect, i8, i8 }
%struct.SDL_Rect = type { i32, i32, i32, i32 }
%struct.anon.6 = type { ptr, %struct.wl_list }
%struct.SDL_VideoData = type { i8, ptr, i32, ptr, ptr, ptr, ptr, i32, %struct.anon.7, ptr, ptr, ptr, ptr, ptr, ptr, ptr, ptr, ptr, ptr, ptr, ptr, ptr, ptr, ptr, ptr, ptr, ptr, ptr, ptr, ptr, ptr, %struct.wl_list, ptr, ptr, ptr, ptr, i32, i32, i8, i8 }
%struct.anon.7 = type { ptr }
%struct.SDL_VideoDevice = type { ptr, ptr, ptr, ptr, ptr, ptr, ptr, ptr, ptr, ptr, ptr, ptr, ptr, ptr, ptr, ptr, ptr, ptr, ptr, ptr, ptr, ptr, ptr, ptr, ptr, ptr, ptr, ptr, ptr, ptr, ptr, ptr, ptr, ptr, ptr, ptr, ptr, ptr, ptr, ptr, ptr, ptr, ptr, ptr, ptr, ptr, ptr, ptr, ptr, ptr, ptr, ptr, ptr, ptr, ptr, ptr, ptr, ptr, ptr, ptr, ptr, ptr, ptr, ptr, ptr, ptr, ptr, ptr, ptr, ptr, ptr, ptr, ptr, ptr, ptr, ptr, ptr, ptr, ptr, ptr, ptr, ptr, ptr, ptr, ptr, ptr, ptr, ptr, ptr, ptr, ptr, ptr, ptr, ptr, ptr, ptr, ptr, i64, i8, i8, i8, ptr, i32, ptr, %struct.SDL_Rect, ptr, ptr, i32, ptr, ptr, ptr, ptr, i64, ptr, i8, i32, i32, %struct.anon.8, ptr, ptr, ptr, ptr, ptr, ptr, %struct.SDL_AtomicInt, %struct.SDL_AtomicInt, i8, %struct.anon.9, ptr, ptr, ptr, ptr, ptr }
%struct.anon.8 = type { i32, i32, i32, i32, i32, i32, i32, i32, i32, i32, i32, i32, i32, i32, i32, i32, i32, i32, i32, i32, i32, i32, i32, i32, i32, i32, i32, i32, i32, [256 x i8], ptr }
%struct.SDL_AtomicInt = type { i32 }
%struct.anon.9 = type { ptr, ptr, i32, [256 x i8], ptr }

@WAYLAND_wl_display_flush = external global ptr, align 8
@WAYLAND_wl_display_prepare_read = external global ptr, align 8
@WAYLAND_wl_display_get_fd = external global ptr, align 8
@WAYLAND_wl_display_read_events = external global ptr, align 8
@WAYLAND_wl_display_cancel_read = external global ptr, align 8
@WAYLAND_wl_display_dispatch_pending = external global ptr, align 8
@.str = private unnamed_addr constant [52 x i8] c"Wayland display connection closed by server (fatal)\00", align 1
@Wayland_AdjustEventTimestampBase.timestamp_offset = internal global i64 0, align 8

; Function Attrs: nounwind uwtable
define internal i64 @Wayland_AdjustEventTimestampBase(i64 noundef %0) #0 {
  %2 = alloca i64, align 8
  %3 = alloca i64, align 8
  store i64 %0, ptr %2, align 8
  call void @llvm.lifetime.start.p0(i64 8, ptr %3) #10
  %4 = call i64 @SDL_GetTicksNS_REAL()
  store i64 %4, ptr %3, align 8
  %5 = load i64, ptr @Wayland_AdjustEventTimestampBase.timestamp_offset, align 8
  %6 = icmp ne i64 %5, 0
  br i1 %6, label %11, label %7

7:                                                ; preds = %1
  %8 = load i64, ptr %3, align 8
  %9 = load i64, ptr %2, align 8
  %10 = sub i64 %8, %9
  store i64 %10, ptr @Wayland_AdjustEventTimestampBase.timestamp_offset, align 8
  br label %11

11:                                               ; preds = %7, %1
  %12 = load i64, ptr @Wayland_AdjustEventTimestampBase.timestamp_offset, align 8
  %13 = load i64, ptr %2, align 8
  %14 = add i64 %13, %12
  store i64 %14, ptr %2, align 8
  %15 = load i64, ptr %2, align 8
  %16 = load i64, ptr %3, align 8
  %17 = icmp ugt i64 %15, %16
  br i1 %17, label %18, label %25

18:                                               ; preds = %11
  %19 = load i64, ptr %2, align 8
  %20 = load i64, ptr %3, align 8
  %21 = sub i64 %19, %20
  %22 = load i64, ptr @Wayland_AdjustEventTimestampBase.timestamp_offset, align 8
  %23 = sub i64 %22, %21
  store i64 %23, ptr @Wayland_AdjustEventTimestampBase.timestamp_offset, align 8
  %24 = load i64, ptr %3, align 8
  store i64 %24, ptr %2, align 8
  br label %25

25:                                               ; preds = %18, %11
  %26 = load i64, ptr %2, align 8
  call void @llvm.lifetime.end.p0(i64 8, ptr %3) #10
  ret i64 %26
}

; Function Attrs: nounwind uwtable
define internal zeroext i1 @keyboard_repeat_handle(ptr noundef %0, i64 noundef %1) #0 {
  %3 = alloca ptr, align 8
  %4 = alloca i64, align 8
  %5 = alloca i8, align 1
  %6 = alloca i64, align 8
  store ptr %0, ptr %3, align 8
  store i64 %1, ptr %4, align 8
  call void @llvm.lifetime.start.p0(i64 1, ptr %5) #10
  store i8 0, ptr %5, align 1
  br label %7

7:                                                ; preds = %48, %2
  %8 = load i64, ptr %4, align 8
  %9 = load ptr, ptr %3, align 8
  %10 = getelementptr inbounds nuw %struct.SDL_WaylandKeyboardRepeat, ptr %9, i32 0, i32 8
  %11 = load i64, ptr %10, align 8
  %12 = icmp uge i64 %8, %11
  br i1 %12, label %13, label %58

13:                                               ; preds = %7
  %14 = load ptr, ptr %3, align 8
  %15 = getelementptr inbounds nuw %struct.SDL_WaylandKeyboardRepeat, ptr %14, i32 0, i32 9
  %16 = load i32, ptr %15, align 8
  %17 = icmp ne i32 %16, 0
  br i1 %17, label %18, label %38

18:                                               ; preds = %13
  call void @llvm.lifetime.start.p0(i64 8, ptr %6) #10
  %19 = load ptr, ptr %3, align 8
  %20 = getelementptr inbounds nuw %struct.SDL_WaylandKeyboardRepeat, ptr %19, i32 0, i32 6
  %21 = load i64, ptr %20, align 8
  %22 = load ptr, ptr %3, align 8
  %23 = getelementptr inbounds nuw %struct.SDL_WaylandKeyboardRepeat, ptr %22, i32 0, i32 8
  %24 = load i64, ptr %23, align 8
  %25 = add i64 %21, %24
  store i64 %25, ptr %6, align 8
  %26 = load i64, ptr %6, align 8
  %27 = call i64 @Wayland_AdjustEventTimestampBase(i64 noundef %26)
  %28 = load ptr, ptr %3, align 8
  %29 = getelementptr inbounds nuw %struct.SDL_WaylandKeyboardRepeat, ptr %28, i32 0, i32 2
  %30 = load i32, ptr %29, align 8
  %31 = load ptr, ptr %3, align 8
  %32 = getelementptr inbounds nuw %struct.SDL_WaylandKeyboardRepeat, ptr %31, i32 0, i32 5
  %33 = load i32, ptr %32, align 8
  %34 = load ptr, ptr %3, align 8
  %35 = getelementptr inbounds nuw %struct.SDL_WaylandKeyboardRepeat, ptr %34, i32 0, i32 9
  %36 = load i32, ptr %35, align 8
  %37 = call zeroext i1 @SDL_SendKeyboardKeyIgnoreModifiers(i64 noundef %27, i32 noundef %30, i32 noundef %33, i32 noundef %36, i1 noundef zeroext true)
  call void @llvm.lifetime.end.p0(i64 8, ptr %6) #10
  br label %38

38:                                               ; preds = %18, %13
  %39 = load ptr, ptr %3, align 8
  %40 = getelementptr inbounds nuw %struct.SDL_WaylandKeyboardRepeat, ptr %39, i32 0, i32 10
  %41 = getelementptr inbounds [8 x i8], ptr %40, i64 0, i64 0
  %42 = load i8, ptr %41, align 4
  %43 = icmp ne i8 %42, 0
  br i1 %43, label %44, label %48

44:                                               ; preds = %38
  %45 = load ptr, ptr %3, align 8
  %46 = getelementptr inbounds nuw %struct.SDL_WaylandKeyboardRepeat, ptr %45, i32 0, i32 10
  %47 = getelementptr inbounds [8 x i8], ptr %46, i64 0, i64 0
  call void @SDL_SendKeyboardText(ptr noundef %47)
  br label %48

48:                                               ; preds = %44, %38
  %49 = load ptr, ptr %3, align 8
  %50 = getelementptr inbounds nuw %struct.SDL_WaylandKeyboardRepeat, ptr %49, i32 0, i32 0
  %51 = load i32, ptr %50, align 8
  %52 = sext i32 %51 to i64
  %53 = udiv i64 1000000000, %52
  %54 = load ptr, ptr %3, align 8
  %55 = getelementptr inbounds nuw %struct.SDL_WaylandKeyboardRepeat, ptr %54, i32 0, i32 8
  %56 = load i64, ptr %55, align 8
  %57 = add i64 %56, %53
  store i64 %57, ptr %55, align 8
  store i8 1, ptr %5, align 1
  br label %7, !llvm.loop !10

58:                                               ; preds = %7
  %59 = load i8, ptr %5, align 1, !range !7, !noundef !8
  %60 = trunc i8 %59 to i1
  call void @llvm.lifetime.end.p0(i64 1, ptr %5) #10
  ret i1 %60
}

; Function Attrs: nounwind uwtable
define internal zeroext i1 @keyboard_repeat_is_set(ptr noundef %0) #0 {
  %2 = alloca ptr, align 8
  store ptr %0, ptr %2, align 8
  %3 = load ptr, ptr %2, align 8
  %4 = getelementptr inbounds nuw %struct.SDL_WaylandKeyboardRepeat, ptr %3, i32 0, i32 3
  %5 = load i8, ptr %4, align 4, !range !7, !noundef !8
  %6 = trunc i8 %5 to i1
  br i1 %6, label %7, label %12

7:                                                ; preds = %1
  %8 = load ptr, ptr %2, align 8
  %9 = getelementptr inbounds nuw %struct.SDL_WaylandKeyboardRepeat, ptr %8, i32 0, i32 4
  %10 = load i8, ptr %9, align 1, !range !7, !noundef !8
  %11 = trunc i8 %10 to i1
  br label %12

12:                                               ; preds = %7, %1
  %13 = phi i1 [ false, %1 ], [ %11, %7 ]
  ret i1 %13
}

; Function Attrs: nounwind uwtable
define hidden void @Wayland_PumpEvents(ptr noundef %0) #0 {
  %2 = alloca ptr, align 8
  %3 = alloca ptr, align 8
  %4 = alloca ptr, align 8
  %5 = alloca i32, align 4
  %6 = alloca ptr, align 8
  %7 = alloca i64, align 8
  store ptr %0, ptr %2, align 8
  call void @llvm.lifetime.start.p0(i64 8, ptr %3) #10
  %8 = load ptr, ptr %2, align 8
  %9 = getelementptr inbounds nuw %struct.SDL_VideoDevice, ptr %8, i32 0, i32 128
  %10 = load ptr, ptr %9, align 8
  store ptr %10, ptr %3, align 8
  call void @llvm.lifetime.start.p0(i64 8, ptr %4) #10
  call void @llvm.lifetime.start.p0(i64 4, ptr %5) #10
  call void @llvm.lifetime.start.p0(i64 8, ptr %6) #10
  %11 = call ptr @SDL_GetKeyboardFocus_REAL()
  store ptr %11, ptr %6, align 8
  %12 = load ptr, ptr %3, align 8
  %13 = getelementptr inbounds nuw %struct.SDL_VideoData, ptr %12, i32 0, i32 18
  %14 = load ptr, ptr %13, align 8
  %15 = icmp ne ptr %14, null
  br i1 %15, label %23, label %16

16:                                               ; preds = %1
  %17 = load ptr, ptr %6, align 8
  %18 = icmp ne ptr %17, null
  br i1 %18, label %19, label %23

19:                                               ; preds = %16
  %20 = load ptr, ptr %6, align 8
  %21 = call zeroext i1 @SDL_TextInputActive_REAL(ptr noundef %20)
  br i1 %21, label %22, label %23

22:                                               ; preds = %19
  call void @SDL_IME_PumpEvents()
  br label %23

23:                                               ; preds = %22, %19, %16, %1
  call void @SDL_DBus_PumpEvents()
  %24 = load ptr, ptr @WAYLAND_wl_display_flush, align 8
  %25 = load ptr, ptr %3, align 8
  %26 = getelementptr inbounds nuw %struct.SDL_VideoData, ptr %25, i32 0, i32 1
  %27 = load ptr, ptr %26, align 8
  %28 = call i32 %24(ptr noundef %27)
  %29 = load ptr, ptr @WAYLAND_wl_display_prepare_read, align 8
  %30 = load ptr, ptr %3, align 8
  %31 = getelementptr inbounds nuw %struct.SDL_VideoData, ptr %30, i32 0, i32 1
  %32 = load ptr, ptr %31, align 8
  %33 = call i32 %29(ptr noundef %32)
  %34 = icmp eq i32 %33, 0
  br i1 %34, label %35, label %55

35:                                               ; preds = %23
  %36 = load ptr, ptr @WAYLAND_wl_display_get_fd, align 8
  %37 = load ptr, ptr %3, align 8
  %38 = getelementptr inbounds nuw %struct.SDL_VideoData, ptr %37, i32 0, i32 1
  %39 = load ptr, ptr %38, align 8
  %40 = call i32 %36(ptr noundef %39)
  %41 = call i32 @SDL_IOReady(i32 noundef %40, i32 noundef 1, i64 noundef 0)
  %42 = icmp sgt i32 %41, 0
  br i1 %42, label %43, label %49

43:                                               ; preds = %35
  %44 = load ptr, ptr @WAYLAND_wl_display_read_events, align 8
  %45 = load ptr, ptr %3, align 8
  %46 = getelementptr inbounds nuw %struct.SDL_VideoData, ptr %45, i32 0, i32 1
  %47 = load ptr, ptr %46, align 8
  %48 = call i32 %44(ptr noundef %47)
  br label %54

49:                                               ; preds = %35
  %50 = load ptr, ptr @WAYLAND_wl_display_cancel_read, align 8
  %51 = load ptr, ptr %3, align 8
  %52 = getelementptr inbounds nuw %struct.SDL_VideoData, ptr %51, i32 0, i32 1
  %53 = load ptr, ptr %52, align 8
  call void %50(ptr noundef %53)
  br label %54

54:                                               ; preds = %49, %43
  br label %55

55:                                               ; preds = %54, %23
  %56 = load ptr, ptr @WAYLAND_wl_display_dispatch_pending, align 8
  %57 = load ptr, ptr %3, align 8
  %58 = getelementptr inbounds nuw %struct.SDL_VideoData, ptr %57, i32 0, i32 1
  %59 = load ptr, ptr %58, align 8
  %60 = call i32 %56(ptr noundef %59)
  store i32 %60, ptr %5, align 4
  %61 = load ptr, ptr %3, align 8
  %62 = getelementptr inbounds nuw %struct.SDL_VideoData, ptr %61, i32 0, i32 31
  %63 = getelementptr inbounds nuw %struct.wl_list, ptr %62, i32 0, i32 1
  %64 = load ptr, ptr %63, align 8
  %65 = getelementptr inbounds i8, ptr %64, i64 -40
  store ptr %65, ptr %4, align 8
  br label %66

66:                                               ; preds = %115, %55
  %67 = load ptr, ptr %4, align 8
  %68 = getelementptr inbounds nuw %struct.SDL_WaylandSeat, ptr %67, i32 0, i32 5
  %69 = load ptr, ptr %3, align 8
  %70 = getelementptr inbounds nuw %struct.SDL_VideoData, ptr %69, i32 0, i32 31
  %71 = icmp ne ptr %68, %70
  br i1 %71, label %72, label %121

72:                                               ; preds = %66
  %73 = load ptr, ptr %4, align 8
  %74 = getelementptr inbounds nuw %struct.SDL_WaylandSeat, ptr %73, i32 0, i32 8
  %75 = getelementptr inbounds nuw %struct.anon, ptr %74, i32 0, i32 5
  %76 = call zeroext i1 @keyboard_repeat_is_set(ptr noundef %75)
  br i1 %76, label %77, label %114

77:                                               ; preds = %72
  %78 = load ptr, ptr %4, align 8
  %79 = getelementptr inbounds nuw %struct.SDL_WaylandSeat, ptr %78, i32 0, i32 8
  %80 = getelementptr inbounds nuw %struct.anon, ptr %79, i32 0, i32 4
  %81 = load ptr, ptr %80, align 8
  %82 = call ptr @SDL_GetCurrentKeymap()
  %83 = icmp ne ptr %81, %82
  br i1 %83, label %84, label %101

84:                                               ; preds = %77
  %85 = load ptr, ptr %4, align 8
  %86 = getelementptr inbounds nuw %struct.SDL_WaylandSeat, ptr %85, i32 0, i32 8
  %87 = getelementptr inbounds nuw %struct.anon, ptr %86, i32 0, i32 4
  %88 = load ptr, ptr %87, align 8
  call void @SDL_SetKeymap(ptr noundef %88, i1 noundef zeroext true)
  %89 = load ptr, ptr %4, align 8
  %90 = getelementptr inbounds nuw %struct.SDL_WaylandSeat, ptr %89, i32 0, i32 8
  %91 = getelementptr inbounds nuw %struct.anon, ptr %90, i32 0, i32 7
  %92 = load i16, ptr %91, align 8
  %93 = zext i16 %92 to i32
  %94 = load ptr, ptr %4, align 8
  %95 = getelementptr inbounds nuw %struct.SDL_WaylandSeat, ptr %94, i32 0, i32 8
  %96 = getelementptr inbounds nuw %struct.anon, ptr %95, i32 0, i32 8
  %97 = load i16, ptr %96, align 2
  %98 = zext i16 %97 to i32
  %99 = or i32 %93, %98
  %100 = trunc i32 %99 to i16
  call void @SDL_SetModState_REAL(i16 noundef zeroext %100)
  br label %101

101:                                              ; preds = %84, %77
  call void @llvm.lifetime.start.p0(i64 8, ptr %7) #10
  %102 = call i64 @SDL_GetTicksNS_REAL()
  %103 = load ptr, ptr %4, align 8
  %104 = getelementptr inbounds nuw %struct.SDL_WaylandSeat, ptr %103, i32 0, i32 8
  %105 = getelementptr inbounds nuw %struct.anon, ptr %104, i32 0, i32 5
  %106 = getelementptr inbounds nuw %struct.SDL_WaylandKeyboardRepeat, ptr %105, i32 0, i32 7
  %107 = load i64, ptr %106, align 8
  %108 = sub i64 %102, %107
  store i64 %108, ptr %7, align 8
  %109 = load ptr, ptr %4, align 8
  %110 = getelementptr inbounds nuw %struct.SDL_WaylandSeat, ptr %109, i32 0, i32 8
  %111 = getelementptr inbounds nuw %struct.anon, ptr %110, i32 0, i32 5
  %112 = load i64, ptr %7, align 8
  %113 = call zeroext i1 @keyboard_repeat_handle(ptr noundef %111, i64 noundef %112)
  call void @llvm.lifetime.end.p0(i64 8, ptr %7) #10
  br label %114

114:                                              ; preds = %101, %72
  br label %115

115:                                              ; preds = %114
  %116 = load ptr, ptr %4, align 8
  %117 = getelementptr inbounds nuw %struct.SDL_WaylandSeat, ptr %116, i32 0, i32 5
  %118 = getelementptr inbounds nuw %struct.wl_list, ptr %117, i32 0, i32 1
  %119 = load ptr, ptr %118, align 8
  %120 = getelementptr inbounds i8, ptr %119, i64 -40
  store ptr %120, ptr %4, align 8
  br label %66, !llvm.loop !11

121:                                              ; preds = %66
  %122 = load i32, ptr %5, align 4
  %123 = icmp slt i32 %122, 0
  br i1 %123, label %124, label %136

124:                                              ; preds = %121
  %125 = load ptr, ptr %3, align 8
  %126 = getelementptr inbounds nuw %struct.SDL_VideoData, ptr %125, i32 0, i32 2
  %127 = load i32, ptr %126, align 8
  %128 = icmp ne i32 %127, 0
  br i1 %128, label %136, label %129

129:                                              ; preds = %124
  %130 = load ptr, ptr %2, align 8
  %131 = call zeroext i1 @Wayland_VideoReconnect(ptr noundef %130)
  br i1 %131, label %135, label %132

132:                                              ; preds = %129
  %133 = load ptr, ptr %3, align 8
  %134 = getelementptr inbounds nuw %struct.SDL_VideoData, ptr %133, i32 0, i32 2
  store i32 1, ptr %134, align 8
  call void (i32, ptr, ...) @SDL_LogError_REAL(i32 noundef 5, ptr noundef @.str)
  call void @SDL_SendQuit()
  br label %135

135:                                              ; preds = %132, %129
  br label %136

136:                                              ; preds = %135, %124, %121
  call void @llvm.lifetime.end.p0(i64 8, ptr %6) #10
  call void @llvm.lifetime.end.p0(i64 4, ptr %5) #10
  call void @llvm.lifetime.end.p0(i64 8, ptr %4) #10
  call void @llvm.lifetime.end.p0(i64 8, ptr %3) #10
  ret void
}