; Function Attrs: nounwind uwtable
define hidden void @Wayland_PumpEvents(ptr noundef %0) local_unnamed_addr #0 {
  %2 = getelementptr inbounds nuw i8, ptr %0, i64 1656
  %3 = load ptr, ptr %2, align 8
  %4 = tail call ptr @SDL_GetKeyboardFocus_REAL() #12
  %5 = getelementptr inbounds nuw i8, ptr %3, i64 144
  %6 = load ptr, ptr %5, align 8
  %7 = icmp eq ptr %6, null
  %8 = icmp ne ptr %4, null
  %or.cond = select i1 %7, i1 %8, i1 false
  br i1 %or.cond, label %9, label %12

9:                                                ; preds = %1
  %10 = tail call zeroext i1 @SDL_TextInputActive_REAL(ptr noundef nonnull %4) #12
  br i1 %10, label %11, label %12

11:                                               ; preds = %9
  tail call void @SDL_IME_PumpEvents() #12
  br label %12

12:                                               ; preds = %11, %9, %1
  tail call void @SDL_DBus_PumpEvents() #12
  %13 = load ptr, ptr @WAYLAND_wl_display_flush, align 8
  %14 = getelementptr inbounds nuw i8, ptr %3, i64 8
  %15 = load ptr, ptr %14, align 8
  %16 = tail call i32 %13(ptr noundef %15) #12
  %17 = load ptr, ptr @WAYLAND_wl_display_prepare_read, align 8
  %18 = load ptr, ptr %14, align 8
  %19 = tail call i32 %17(ptr noundef %18) #12
  %20 = icmp eq i32 %19, 0
  br i1 %20, label %21, label %33

21:                                               ; preds = %12
  %22 = load ptr, ptr @WAYLAND_wl_display_get_fd, align 8
  %23 = load ptr, ptr %14, align 8
  %24 = tail call i32 %22(ptr noundef %23) #12
  %25 = tail call i32 @SDL_IOReady(i32 noundef %24, i32 noundef 1, i64 noundef 0) #12
  %26 = icmp sgt i32 %25, 0
  %27 = load ptr, ptr %14, align 8
  br i1 %26, label %28, label %31

28:                                               ; preds = %21
  %29 = load ptr, ptr @WAYLAND_wl_display_read_events, align 8
  %30 = tail call i32 %29(ptr noundef %27) #12
  br label %33

31:                                               ; preds = %21
  %32 = load ptr, ptr @WAYLAND_wl_display_cancel_read, align 8
  tail call void %32(ptr noundef %27) #12
  br label %33

33:                                               ; preds = %28, %31, %12
  %34 = load ptr, ptr @WAYLAND_wl_display_dispatch_pending, align 8
  %35 = load ptr, ptr %14, align 8
  %36 = tail call i32 %34(ptr noundef %35) #12
  %37 = getelementptr inbounds nuw i8, ptr %3, i64 248
  %38 = getelementptr inbounds nuw i8, ptr %3, i64 256
  %.pn30 = load ptr, ptr %38, align 8
  %.not31 = icmp eq ptr %.pn30, %37
  br i1 %.not31, label %._crit_edge, label %.lr.ph

.lr.ph:                                           ; preds = %33, %keyboard_repeat_handle.exit
  %.pn32 = phi ptr [ %.pn, %keyboard_repeat_handle.exit ], [ %.pn30, %33 ]
  %39 = getelementptr inbounds nuw i8, ptr %.pn32, i64 64
  %40 = getelementptr inbounds nuw i8, ptr %.pn32, i64 76
  %41 = load i8, ptr %40, align 4, !range !6, !noundef !7
  %42 = trunc nuw i8 %41 to i1
  br i1 %42, label %keyboard_repeat_is_set.exit, label %keyboard_repeat_handle.exit

keyboard_repeat_is_set.exit:                      ; preds = %.lr.ph
  %43 = getelementptr inbounds nuw i8, ptr %.pn32, i64 77
  %44 = load i8, ptr %43, align 1, !range !6, !noundef !7
  %45 = trunc nuw i8 %44 to i1
  br i1 %45, label %46, label %keyboard_repeat_handle.exit

46:                                               ; preds = %keyboard_repeat_is_set.exit
  %47 = getelementptr inbounds nuw i8, ptr %.pn32, i64 56
  %48 = load ptr, ptr %47, align 8
  %49 = tail call ptr @SDL_GetCurrentKeymap() #12
  %.not29 = icmp eq ptr %48, %49
  br i1 %.not29, label %57, label %50

50:                                               ; preds = %46
  %51 = load ptr, ptr %47, align 8
  tail call void @SDL_SetKeymap(ptr noundef %51, i1 noundef zeroext true) #12
  %52 = getelementptr inbounds nuw i8, ptr %.pn32, i64 136
  %53 = load i16, ptr %52, align 8
  %54 = getelementptr inbounds nuw i8, ptr %.pn32, i64 138
  %55 = load i16, ptr %54, align 2
  %56 = or i16 %55, %53
  tail call void @SDL_SetModState_REAL(i16 noundef zeroext %56) #12
  br label %57

57:                                               ; preds = %50, %46
  %58 = tail call i64 @SDL_GetTicksNS_REAL() #12
  %59 = getelementptr inbounds nuw i8, ptr %.pn32, i64 96
  %60 = load i64, ptr %59, align 8
  %61 = sub i64 %58, %60
  %62 = getelementptr inbounds nuw i8, ptr %.pn32, i64 104
  %63 = load i64, ptr %62, align 8
  %.not16.i.not = icmp ult i64 %61, %63
  br i1 %.not16.i.not, label %keyboard_repeat_handle.exit, label %.lr.ph.i

.lr.ph.i:                                         ; preds = %57
  %64 = getelementptr inbounds nuw i8, ptr %.pn32, i64 112
  %65 = getelementptr inbounds nuw i8, ptr %.pn32, i64 88
  %66 = getelementptr inbounds nuw i8, ptr %.pn32, i64 72
  %67 = getelementptr inbounds nuw i8, ptr %.pn32, i64 80
  %68 = getelementptr inbounds nuw i8, ptr %.pn32, i64 116
  br label %69

69:                                               ; preds = %89, %.lr.ph.i
  %70 = phi i64 [ %63, %.lr.ph.i ], [ %94, %89 ]
  %71 = load i32, ptr %64, align 8
  %.not14.i = icmp eq i32 %71, 0
  br i1 %.not14.i, label %86, label %72

72:                                               ; preds = %69
  %73 = load i64, ptr %65, align 8
  %74 = add i64 %73, %70
  %75 = tail call i64 @SDL_GetTicksNS_REAL() #12
  %76 = load i64, ptr @Wayland_AdjustEventTimestampBase.timestamp_offset, align 8
  %.not.not.i.i = icmp eq i64 %76, 0
  %77 = sub i64 %75, %74
  %78 = select i1 %.not.not.i.i, i64 %77, i64 %76
  %79 = add i64 %78, %74
  %.not.i.i = icmp ugt i64 %79, %75
  %80 = or i1 %.not.not.i.i, %.not.i.i
  br i1 %80, label %81, label %Wayland_AdjustEventTimestampBase.exit.i

81:                                               ; preds = %72
  %simplifycfg.merge.i.i = select i1 %.not.i.i, i64 %77, i64 %78
  store i64 %simplifycfg.merge.i.i, ptr @Wayland_AdjustEventTimestampBase.timestamp_offset, align 8
  br label %Wayland_AdjustEventTimestampBase.exit.i

Wayland_AdjustEventTimestampBase.exit.i:          ; preds = %81, %72
  %.0.i.i = tail call i64 @llvm.umin.i64(i64 %79, i64 %75)
  %82 = load i32, ptr %66, align 8
  %83 = load i32, ptr %67, align 8
  %84 = load i32, ptr %64, align 8
  %85 = tail call zeroext i1 @SDL_SendKeyboardKeyIgnoreModifiers(i64 noundef %.0.i.i, i32 noundef %82, i32 noundef %83, i32 noundef %84, i1 noundef zeroext true) #12
  br label %86

86:                                               ; preds = %Wayland_AdjustEventTimestampBase.exit.i, %69
  %87 = load i8, ptr %68, align 4
  %.not15.i = icmp eq i8 %87, 0
  br i1 %.not15.i, label %89, label %88

88:                                               ; preds = %86
  tail call void @SDL_SendKeyboardText(ptr noundef nonnull %68) #12
  br label %89

89:                                               ; preds = %88, %86
  %90 = load i32, ptr %39, align 8
  %91 = sext i32 %90 to i64
  %92 = udiv i64 1000000000, %91
  %93 = load i64, ptr %62, align 8
  %94 = add i64 %93, %92
  store i64 %94, ptr %62, align 8
  %.not.i = icmp ult i64 %61, %94
  br i1 %.not.i, label %keyboard_repeat_handle.exit, label %69, !llvm.loop !8

keyboard_repeat_handle.exit:                      ; preds = %89, %.lr.ph, %57, %keyboard_repeat_is_set.exit
  %95 = getelementptr inbounds nuw i8, ptr %.pn32, i64 8
  %.pn = load ptr, ptr %95, align 8
  %.not = icmp eq ptr %.pn, %37
  br i1 %.not, label %._crit_edge, label %.lr.ph, !llvm.loop !11

._crit_edge:                                      ; preds = %keyboard_repeat_handle.exit, %33
  %96 = icmp slt i32 %36, 0
  br i1 %96, label %97, label %103

97:                                               ; preds = %._crit_edge
  %98 = getelementptr inbounds nuw i8, ptr %3, i64 16
  %99 = load i32, ptr %98, align 8
  %.not28 = icmp eq i32 %99, 0
  br i1 %.not28, label %100, label %103

100:                                              ; preds = %97
  %101 = tail call zeroext i1 @Wayland_VideoReconnect(ptr noundef %0) #12
  br i1 %101, label %103, label %102

102:                                              ; preds = %100
  store i32 1, ptr %98, align 8
  tail call void (i32, ptr, ...) @SDL_LogError_REAL(i32 noundef 5, ptr noundef nonnull @.str) #12
  tail call void @SDL_SendQuit() #12
  br label %103

103:                                              ; preds = %100, %102, %97, %._crit_edge
  ret void
}